target datalayout = "e-m:e-p270:32:32-p271:32:32-p272:64:64-i64:64-i128:128-f80:128-n8:16:32:64-S128"
target triple = "x86_64-pc-linux-gnu"

%struct.Scheduler = type { ptr, ptr, i32, ptr, i32, i32, %union.pthread_mutex_t, i32, i32, %union.pthread_mutex_t, %union.pthread_cond_t, ptr, i32, ptr, i32, ptr, i32, ptr, i32, ptr, i32, i32, i32, %union.pthread_mutex_t, i64 }
%union.pthread_cond_t = type { %struct.__pthread_cond_s }
%struct.__pthread_cond_s = type { %union.__atomic_wide_counter, %union.__atomic_wide_counter, [2 x i32], [2 x i32], i32, i32, [2 x i32] }
%union.__atomic_wide_counter = type { i64 }
%union.pthread_mutex_t = type { %struct.__pthread_mutex_s }
%struct.__pthread_mutex_s = type { i32, i32, i32, i32, i32, i16, i16, %struct.__pthread_internal_list }
%struct.__pthread_internal_list = type { ptr, ptr }
%struct.SchTask = type { ptr, %struct.SchedulerNode, ptr, ptr, i64, i32 }
%struct.SchedulerNode = type { i32, i32, i32 }
%struct.SchWaiter = type { %union.pthread_mutex_t, %union.pthread_cond_t, i32, i32, i32 }
%struct.SchFilterGraph = type { ptr, ptr, i32, i32, i32, ptr, i32, %struct.SchTask, ptr, %struct.SchWaiter, i32, i32 }

@.str = private unnamed_addr constant [30 x i8] c"Assertion %s failed at %s:%d\0A\00", align 1
@.str.2 = private unnamed_addr constant [23 x i8] c"fftools/ffmpeg_sched.c\00", align 1
@.str.40 = private unnamed_addr constant [16 x i8] c"queue_size == 8\00", align 1
@sch_fg_class = internal constant { ptr, ptr, ptr, i32, i32, i32, i32, ptr, ptr, ptr, ptr, i32, [4 x i8] } { ptr @.str.43, ptr null, ptr null, i32 3932772, i32 0, i32 80, i32 0, ptr null, ptr null, ptr null, ptr null, i32 0, [4 x i8] zeroinitializer }, align 8

; Function Attrs: nounwind uwtable
define internal i32 @queue_alloc(ptr noundef %0, i32 noundef %1, i32 noundef %2, i32 noundef %3) #0 {
  %5 = alloca i32, align 4
  %6 = alloca ptr, align 8
  %7 = alloca i32, align 4
  %8 = alloca i32, align 4
  %9 = alloca i32, align 4
  %10 = alloca ptr, align 8
  %11 = alloca i32, align 4
  store ptr %0, ptr %6, align 8, !tbaa !114
  store i32 %1, ptr %7, align 4, !tbaa !12
  store i32 %2, ptr %8, align 4, !tbaa !12
  store i32 %3, ptr %9, align 4, !tbaa !12
  call void @llvm.lifetime.start.p0(i64 8, ptr %10) #9
  %12 = load i32, ptr %8, align 4, !tbaa !12
  %13 = icmp ule i32 %12, 0
  br i1 %13, label %14, label %20

14:                                               ; preds = %4
  %15 = load i32, ptr %9, align 4, !tbaa !12
  %16 = icmp eq i32 %15, 1
  br i1 %16, label %17, label %18

17:                                               ; preds = %14
  store i32 8, ptr %8, align 4, !tbaa !12
  br label %19

18:                                               ; preds = %14
  store i32 8, ptr %8, align 4, !tbaa !12
  br label %19

19:                                               ; preds = %18, %17
  br label %20

20:                                               ; preds = %19, %4
  %21 = load i32, ptr %9, align 4, !tbaa !12
  %22 = icmp eq i32 %21, 1
  br i1 %22, label %23, label %31

23:                                               ; preds = %20
  br label %24

24:                                               ; preds = %23
  %25 = load i32, ptr %8, align 4, !tbaa !12
  %26 = icmp eq i32 %25, 8
  br i1 %26, label %28, label %27

27:                                               ; preds = %24
  call void (ptr, i32, ptr, ...) @av_log(ptr noundef null, i32 noundef 0, ptr noundef @.str, ptr noundef @.str.40, ptr noundef @.str.2, i32 noundef 392)
  call void @abort() #10
  unreachable

28:                                               ; preds = %24
  br label %29

29:                                               ; preds = %28
  br label %30

30:                                               ; preds = %29
  br label %31

31:                                               ; preds = %30, %20
  %32 = load i32, ptr %7, align 4, !tbaa !12
  %33 = load i32, ptr %8, align 4, !tbaa !12
  %34 = zext i32 %33 to i64
  %35 = load i32, ptr %9, align 4, !tbaa !12
  %36 = icmp eq i32 %35, 0
  %37 = select i1 %36, i32 1, i32 0
  %38 = call ptr @tq_alloc(i32 noundef %32, i64 noundef %34, i32 noundef %37)
  store ptr %38, ptr %10, align 8, !tbaa !116
  %39 = load ptr, ptr %10, align 8, !tbaa !116
  %40 = icmp ne ptr %39, null
  br i1 %40, label %42, label %41

41:                                               ; preds = %31
  store i32 -12, ptr %5, align 4
  store i32 1, ptr %11, align 4
  br label %45

42:                                               ; preds = %31
  %43 = load ptr, ptr %10, align 8, !tbaa !116
  %44 = load ptr, ptr %6, align 8, !tbaa !114
  store ptr %43, ptr %44, align 8, !tbaa !116
  store i32 0, ptr %5, align 4
  store i32 1, ptr %11, align 4
  br label %45

45:                                               ; preds = %42, %41
  call void @llvm.lifetime.end.p0(i64 8, ptr %10) #9
  %46 = load i32, ptr %5, align 4
  ret i32 %46
}

; Function Attrs: nounwind uwtable
define internal i32 @waiter_init(ptr noundef %0) #0 {
  %2 = alloca i32, align 4
  %3 = alloca ptr, align 8
  %4 = alloca i32, align 4
  %5 = alloca i32, align 4
  store ptr %0, ptr %3, align 8, !tbaa !83
  call void @llvm.lifetime.start.p0(i64 4, ptr %4) #9
  %6 = load ptr, ptr %3, align 8, !tbaa !83
  %7 = getelementptr inbounds nuw %struct.SchWaiter, ptr %6, i32 0, i32 2
  store i32 0, ptr %7, align 4, !tbaa !111
  %8 = load ptr, ptr %3, align 8, !tbaa !83
  %9 = getelementptr inbounds nuw %struct.SchWaiter, ptr %8, i32 0, i32 0
  %10 = call i32 @pthread_mutex_init(ptr noundef %9, ptr noundef null) #9
  store i32 %10, ptr %4, align 4, !tbaa !12
  %11 = load i32, ptr %4, align 4, !tbaa !12
  %12 = icmp ne i32 %11, 0
  br i1 %12, label %13, label %16

13:                                               ; preds = %1
  %14 = load i32, ptr %4, align 4, !tbaa !12
  %15 = sub nsw i32 0, %14
  store i32 %15, ptr %2, align 4
  store i32 1, ptr %5, align 4
  br label %26

16:                                               ; preds = %1
  %17 = load ptr, ptr %3, align 8, !tbaa !83
  %18 = getelementptr inbounds nuw %struct.SchWaiter, ptr %17, i32 0, i32 1
  %19 = call i32 @pthread_cond_init(ptr noundef %18, ptr noundef null) #9
  store i32 %19, ptr %4, align 4, !tbaa !12
  %20 = load i32, ptr %4, align 4, !tbaa !12
  %21 = icmp ne i32 %20, 0
  br i1 %21, label %22, label %25

22:                                               ; preds = %16
  %23 = load i32, ptr %4, align 4, !tbaa !12
  %24 = sub nsw i32 0, %23
  store i32 %24, ptr %2, align 4
  store i32 1, ptr %5, align 4
  br label %26

25:                                               ; preds = %16
  store i32 0, ptr %2, align 4
  store i32 1, ptr %5, align 4
  br label %26

26:                                               ; preds = %25, %22, %13
  call void @llvm.lifetime.end.p0(i64 4, ptr %4) #9
  %27 = load i32, ptr %2, align 4
  ret i32 %27
}

; Function Attrs: nounwind uwtable
define internal void @task_init(ptr noundef %0, ptr noundef %1, i32 noundef %2, i32 noundef %3, ptr noundef %4, ptr noundef %5) #0 {
  %7 = alloca ptr, align 8
  %8 = alloca ptr, align 8
  %9 = alloca i32, align 4
  %10 = alloca i32, align 4
  %11 = alloca ptr, align 8
  %12 = alloca ptr, align 8
  store ptr %0, ptr %7, align 8, !tbaa !10
  store ptr %1, ptr %8, align 8, !tbaa !101
  store i32 %2, ptr %9, align 4, !tbaa !12
  store i32 %3, ptr %10, align 4, !tbaa !12
  store ptr %4, ptr %11, align 8, !tbaa !97
  store ptr %5, ptr %12, align 8, !tbaa !97
  %13 = load ptr, ptr %7, align 8, !tbaa !10
  %14 = load ptr, ptr %8, align 8, !tbaa !101
  %15 = getelementptr inbounds nuw %struct.SchTask, ptr %14, i32 0, i32 0
  store ptr %13, ptr %15, align 8, !tbaa !103
  %16 = load i32, ptr %9, align 4, !tbaa !12
  %17 = load ptr, ptr %8, align 8, !tbaa !101
  %18 = getelementptr inbounds nuw %struct.SchTask, ptr %17, i32 0, i32 1
  %19 = getelementptr inbounds nuw %struct.SchedulerNode, ptr %18, i32 0, i32 0
  store i32 %16, ptr %19, align 8, !tbaa !104
  %20 = load i32, ptr %10, align 4, !tbaa !12
  %21 = load ptr, ptr %8, align 8, !tbaa !101
  %22 = getelementptr inbounds nuw %struct.SchTask, ptr %21, i32 0, i32 1
  %23 = getelementptr inbounds nuw %struct.SchedulerNode, ptr %22, i32 0, i32 1
  store i32 %20, ptr %23, align 4, !tbaa !105
  %24 = load ptr, ptr %11, align 8, !tbaa !97
  %25 = load ptr, ptr %8, align 8, !tbaa !101
  %26 = getelementptr inbounds nuw %struct.SchTask, ptr %25, i32 0, i32 2
  store ptr %24, ptr %26, align 8, !tbaa !106
  %27 = load ptr, ptr %12, align 8, !tbaa !97
  %28 = load ptr, ptr %8, align 8, !tbaa !101
  %29 = getelementptr inbounds nuw %struct.SchTask, ptr %28, i32 0, i32 3
  store ptr %27, ptr %29, align 8, !tbaa !107
  ret void
}

; Function Attrs: nounwind uwtable
define i32 @sch_add_filtergraph(ptr noundef %0, i32 noundef %1, i32 noundef %2, ptr noundef %3, ptr noundef %4) #0 {
  %6 = alloca i32, align 4
  %7 = alloca ptr, align 8
  %8 = alloca i32, align 4
  %9 = alloca i32, align 4
  %10 = alloca ptr, align 8
  %11 = alloca ptr, align 8
  %12 = alloca i32, align 4
  %13 = alloca ptr, align 8
  %14 = alloca i32, align 4
  %15 = alloca i32, align 4
  store ptr %0, ptr %7, align 8, !tbaa !10
  store i32 %1, ptr %8, align 4, !tbaa !12
  store i32 %2, ptr %9, align 4, !tbaa !12
  store ptr %3, ptr %10, align 8, !tbaa !97
  store ptr %4, ptr %11, align 8, !tbaa !97
  call void @llvm.lifetime.start.p0(i64 4, ptr %12) #9
  %16 = load ptr, ptr %7, align 8, !tbaa !10
  %17 = getelementptr inbounds nuw %struct.Scheduler, ptr %16, i32 0, i32 18
  %18 = load i32, ptr %17, align 8, !tbaa !76
  store i32 %18, ptr %12, align 4, !tbaa !12
  call void @llvm.lifetime.start.p0(i64 8, ptr %13) #9
  call void @llvm.lifetime.start.p0(i64 4, ptr %14) #9
  %19 = load ptr, ptr %7, align 8, !tbaa !10
  %20 = getelementptr inbounds nuw %struct.Scheduler, ptr %19, i32 0, i32 17
  %21 = load ptr, ptr %7, align 8, !tbaa !10
  %22 = getelementptr inbounds nuw %struct.Scheduler, ptr %21, i32 0, i32 18
  %23 = load ptr, ptr %7, align 8, !tbaa !10
  %24 = getelementptr inbounds nuw %struct.Scheduler, ptr %23, i32 0, i32 18
  %25 = load i32, ptr %24, align 8, !tbaa !76
  %26 = add i32 %25, 1
  %27 = call i32 @grow_array(ptr noundef %20, i32 noundef 224, ptr noundef %22, i32 noundef %26)
  store i32 %27, ptr %14, align 4, !tbaa !12
  %28 = load i32, ptr %14, align 4, !tbaa !12
  %29 = icmp slt i32 %28, 0
  br i1 %29, label %30, label %32

30:                                               ; preds = %5
  %31 = load i32, ptr %14, align 4, !tbaa !12
  store i32 %31, ptr %6, align 4
  store i32 1, ptr %15, align 4
  br label %104

32:                                               ; preds = %5
  %33 = load ptr, ptr %7, align 8, !tbaa !10
  %34 = getelementptr inbounds nuw %struct.Scheduler, ptr %33, i32 0, i32 17
  %35 = load ptr, ptr %34, align 8, !tbaa !77
  %36 = load i32, ptr %12, align 4, !tbaa !12
  %37 = zext i32 %36 to i64
  %38 = getelementptr inbounds nuw %struct.SchFilterGraph, ptr %35, i64 %37
  store ptr %38, ptr %13, align 8, !tbaa !78
  %39 = load ptr, ptr %13, align 8, !tbaa !78
  %40 = getelementptr inbounds nuw %struct.SchFilterGraph, ptr %39, i32 0, i32 0
  store ptr @sch_fg_class, ptr %40, align 8, !tbaa !122
  %41 = load ptr, ptr %7, align 8, !tbaa !10
  %42 = load ptr, ptr %13, align 8, !tbaa !78
  %43 = getelementptr inbounds nuw %struct.SchFilterGraph, ptr %42, i32 0, i32 7
  %44 = load i32, ptr %12, align 4, !tbaa !12
  %45 = load ptr, ptr %10, align 8, !tbaa !97
  %46 = load ptr, ptr %11, align 8, !tbaa !97
  call void @task_init(ptr noundef %41, ptr noundef %43, i32 noundef 5, i32 noundef %44, ptr noundef %45, ptr noundef %46)
  %47 = load i32, ptr %8, align 4, !tbaa !12
  %48 = icmp ne i32 %47, 0
  br i1 %48, label %49, label %64

49:                                               ; preds = %32
  %50 = load i32, ptr %8, align 4, !tbaa !12
  %51 = zext i32 %50 to i64
  %52 = call noalias ptr @av_calloc(i64 noundef %51, i64 noundef 32)
  %53 = load ptr, ptr %13, align 8, !tbaa !78
  %54 = getelementptr inbounds nuw %struct.SchFilterGraph, ptr %53, i32 0, i32 1
  store ptr %52, ptr %54, align 8, !tbaa !126
  %55 = load ptr, ptr %13, align 8, !tbaa !78
  %56 = getelementptr inbounds nuw %struct.SchFilterGraph, ptr %55, i32 0, i32 1
  %57 = load ptr, ptr %56, align 8, !tbaa !126
  %58 = icmp ne ptr %57, null
  br i1 %58, label %60, label %59

59:                                               ; preds = %49
  store i32 -12, ptr %6, align 4
  store i32 1, ptr %15, align 4
  br label %104

60:                                               ; preds = %49
  %61 = load i32, ptr %8, align 4, !tbaa !12
  %62 = load ptr, ptr %13, align 8, !tbaa !78
  %63 = getelementptr inbounds nuw %struct.SchFilterGraph, ptr %62, i32 0, i32 2
  store i32 %61, ptr %63, align 8, !tbaa !127
  br label %64

64:                                               ; preds = %60, %32
  %65 = load i32, ptr %9, align 4, !tbaa !12
  %66 = icmp ne i32 %65, 0
  br i1 %66, label %67, label %82

67:                                               ; preds = %64
  %68 = load i32, ptr %9, align 4, !tbaa !12
  %69 = zext i32 %68 to i64
  %70 = call noalias ptr @av_calloc(i64 noundef %69, i64 noundef 12)
  %71 = load ptr, ptr %13, align 8, !tbaa !78
  %72 = getelementptr inbounds nuw %struct.SchFilterGraph, ptr %71, i32 0, i32 5
  store ptr %70, ptr %72, align 8, !tbaa !128
  %73 = load ptr, ptr %13, align 8, !tbaa !78
  %74 = getelementptr inbounds nuw %struct.SchFilterGraph, ptr %73, i32 0, i32 5
  %75 = load ptr, ptr %74, align 8, !tbaa !128
  %76 = icmp ne ptr %75, null
  br i1 %76, label %78, label %77

77:                                               ; preds = %67
  store i32 -12, ptr %6, align 4
  store i32 1, ptr %15, align 4
  br label %104

78:                                               ; preds = %67
  %79 = load i32, ptr %9, align 4, !tbaa !12
  %80 = load ptr, ptr %13, align 8, !tbaa !78
  %81 = getelementptr inbounds nuw %struct.SchFilterGraph, ptr %80, i32 0, i32 6
  store i32 %79, ptr %81, align 8, !tbaa !129
  br label %82

82:                                               ; preds = %78, %64
  %83 = load ptr, ptr %13, align 8, !tbaa !78
  %84 = getelementptr inbounds nuw %struct.SchFilterGraph, ptr %83, i32 0, i32 9
  %85 = call i32 @waiter_init(ptr noundef %84)
  store i32 %85, ptr %14, align 4, !tbaa !12
  %86 = load i32, ptr %14, align 4, !tbaa !12
  %87 = icmp slt i32 %86, 0
  br i1 %87, label %88, label %90

88:                                               ; preds = %82
  %89 = load i32, ptr %14, align 4, !tbaa !12
  store i32 %89, ptr %6, align 4
  store i32 1, ptr %15, align 4
  br label %104

90:                                               ; preds = %82
  %91 = load ptr, ptr %13, align 8, !tbaa !78
  %92 = getelementptr inbounds nuw %struct.SchFilterGraph, ptr %91, i32 0, i32 8
  %93 = load ptr, ptr %13, align 8, !tbaa !78
  %94 = getelementptr inbounds nuw %struct.SchFilterGraph, ptr %93, i32 0, i32 2
  %95 = load i32, ptr %94, align 8, !tbaa !127
  %96 = add i32 %95, 1
  %97 = call i32 @queue_alloc(ptr noundef %92, i32 noundef %96, i32 noundef 0, i32 noundef 1)
  store i32 %97, ptr %14, align 4, !tbaa !12
  %98 = load i32, ptr %14, align 4, !tbaa !12
  %99 = icmp slt i32 %98, 0
  br i1 %99, label %100, label %102

100:                                              ; preds = %90
  %101 = load i32, ptr %14, align 4, !tbaa !12
  store i32 %101, ptr %6, align 4
  store i32 1, ptr %15, align 4
  br label %104

102:                                              ; preds = %90
  %103 = load i32, ptr %12, align 4, !tbaa !12
  store i32 %103, ptr %6, align 4
  store i32 1, ptr %15, align 4
  br label %104

104:                                              ; preds = %102, %100, %88, %77, %59, %30
  call void @llvm.lifetime.end.p0(i64 4, ptr %14) #9
  call void @llvm.lifetime.end.p0(i64 8, ptr %13) #9
  call void @llvm.lifetime.end.p0(i64 4, ptr %12) #9
  %105 = load i32, ptr %6, align 4
  ret i32 %105
}