; Function Attrs: nounwind uwtable
define i32 @sch_add_filtergraph(ptr noundef %0, i32 noundef %1, i32 noundef %2, ptr noundef %3, ptr noundef %4) local_unnamed_addr #0 {
  %6 = getelementptr inbounds nuw i8, ptr %0, i64 232
  %7 = load i32, ptr %6, align 8, !tbaa !62
  %8 = getelementptr inbounds nuw i8, ptr %0, i64 224
  %9 = add i32 %7, 1
  %10 = tail call i32 @grow_array(ptr noundef nonnull %8, i32 noundef 224, ptr noundef nonnull %6, i32 noundef %9) #9
  %11 = icmp slt i32 %10, 0
  br i1 %11, label %48, label %12

12:                                               ; preds = %5
  %13 = load ptr, ptr %8, align 8, !tbaa !65
  %14 = zext i32 %7 to i64
  %15 = getelementptr inbounds nuw %struct.SchFilterGraph, ptr %13, i64 %14
  store ptr @sch_fg_class, ptr %15, align 8, !tbaa !105
  %16 = getelementptr inbounds nuw i8, ptr %15, i64 48
  store ptr %0, ptr %16, align 8, !tbaa !89
  %17 = getelementptr inbounds nuw i8, ptr %15, i64 56
  store i32 5, ptr %17, align 8, !tbaa !90
  %18 = getelementptr inbounds nuw i8, ptr %15, i64 60
  store i32 %7, ptr %18, align 4, !tbaa !91
  %19 = getelementptr inbounds nuw i8, ptr %15, i64 72
  store ptr %3, ptr %19, align 8, !tbaa !92
  %20 = getelementptr inbounds nuw i8, ptr %15, i64 80
  store ptr %4, ptr %20, align 8, !tbaa !93
  %.not = icmp eq i32 %1, 0
  br i1 %.not, label %27, label %21

21:                                               ; preds = %12
  %22 = zext i32 %1 to i64
  %23 = tail call noalias ptr @av_calloc(i64 noundef %22, i64 noundef 32) #9
  %24 = getelementptr inbounds nuw i8, ptr %15, i64 8
  store ptr %23, ptr %24, align 8, !tbaa !109
  %.not39 = icmp eq ptr %23, null
  br i1 %.not39, label %48, label %25

25:                                               ; preds = %21
  %26 = getelementptr inbounds nuw i8, ptr %15, i64 16
  store i32 %1, ptr %26, align 8, !tbaa !110
  br label %27

27:                                               ; preds = %25, %12
  %.not40 = icmp eq i32 %2, 0
  br i1 %.not40, label %34, label %28

28:                                               ; preds = %27
  %29 = zext i32 %2 to i64
  %30 = tail call noalias ptr @av_calloc(i64 noundef %29, i64 noundef 12) #9
  %31 = getelementptr inbounds nuw i8, ptr %15, i64 32
  store ptr %30, ptr %31, align 8, !tbaa !111
  %.not41 = icmp eq ptr %30, null
  br i1 %.not41, label %48, label %32

32:                                               ; preds = %28
  %33 = getelementptr inbounds nuw i8, ptr %15, i64 40
  store i32 %2, ptr %33, align 8, !tbaa !112
  br label %34

34:                                               ; preds = %32, %27
  %35 = getelementptr inbounds nuw i8, ptr %15, i64 112
  %36 = getelementptr inbounds nuw i8, ptr %15, i64 200
  store i32 0, ptr %36, align 4, !tbaa !96
  %37 = tail call i32 @pthread_mutex_init(ptr noundef nonnull %35, ptr noundef null) #9
  %.not.i = icmp eq i32 %37, 0
  br i1 %.not.i, label %38, label %waiter_init.exit

38:                                               ; preds = %34
  %39 = getelementptr inbounds nuw i8, ptr %15, i64 152
  %40 = tail call i32 @pthread_cond_init(ptr noundef nonnull %39, ptr noundef null) #9
  br label %waiter_init.exit

waiter_init.exit:                                 ; preds = %34, %38
  %.pn.i = phi i32 [ %40, %38 ], [ %37, %34 ]
  %.0.i = sub nsw i32 0, %.pn.i
  %41 = icmp sgt i32 %.pn.i, 0
  br i1 %41, label %48, label %42

42:                                               ; preds = %waiter_init.exit
  %43 = getelementptr inbounds nuw i8, ptr %15, i64 16
  %44 = load i32, ptr %43, align 8, !tbaa !110
  %45 = add i32 %44, 1
  %46 = tail call ptr @tq_alloc(i32 noundef %45, i64 noundef 8, i32 noundef 0) #9
  %.not.i42 = icmp eq ptr %46, null
  br i1 %.not.i42, label %48, label %queue_alloc.exit

queue_alloc.exit:                                 ; preds = %42
  %47 = getelementptr inbounds nuw i8, ptr %15, i64 104
  store ptr %46, ptr %47, align 8, !tbaa !99
  br label %48

48:                                               ; preds = %queue_alloc.exit, %42, %waiter_init.exit, %28, %21, %5
  %.0 = phi i32 [ %10, %5 ], [ -12, %21 ], [ -12, %28 ], [ %.0.i, %waiter_init.exit ], [ %7, %queue_alloc.exit ], [ -12, %42 ]
  ret i32 %.0
}